; Function Attrs: mustprogress uwtable
define void @_ZN5arrow8internal11TrieBuilder17ExtendLookupTableEPs(ptr dead_on_unwind noalias writable sret(%"class.arrow::Status") align 8 %0, ptr noundef nonnull align 8 dereferenceable(56) %1, ptr noundef writeonly captures(none) %2) local_unnamed_addr #3 align 2 personality ptr @__gxx_personality_v0 {
  %4 = alloca i16, align 2
  %5 = getelementptr inbounds nuw i8, ptr %1, i64 24
  %6 = getelementptr inbounds nuw i8, ptr %1, i64 32
  %7 = load ptr, ptr %6, align 8, !tbaa !63
  %8 = load ptr, ptr %5, align 8, !tbaa !46
  %9 = ptrtoint ptr %7 to i64
  %10 = ptrtoint ptr %8 to i64
  %11 = sub i64 %9, %10
  %12 = ashr exact i64 %11, 1
  %13 = icmp ugt i64 %12, 8388607
  br i1 %13, label %14, label %_ZNSt6vectorIsSaIsEE6resizeEmRKs.exit

14:                                               ; preds = %3
  tail call void @_ZN5arrow6Status8FromArgsIJRA47_KcEEES0_NS_10StatusCodeEDpOT_(ptr dead_on_unwind writable sret(%"class.arrow::Status") align 8 %0, i8 noundef signext 6, ptr noundef nonnull align 1 dereferenceable(47) @.str.16)
  br label %17

_ZNSt6vectorIsSaIsEE6resizeEmRKs.exit:            ; preds = %3
  %15 = lshr i64 %12, 8
  call void @llvm.lifetime.start.p0(i64 2, ptr nonnull %4) #17
  store i16 -1, ptr %4, align 2, !tbaa !26
  call void @_ZNSt6vectorIsSaIsEE14_M_fill_insertEN9__gnu_cxx17__normal_iteratorIPsS1_EEmRKs(ptr noundef nonnull align 8 dereferenceable(24) %5, ptr %7, i64 noundef 256, ptr noundef nonnull align 2 dereferenceable(2) %4)
  call void @llvm.lifetime.end.p0(i64 2, ptr nonnull %4) #17
  %16 = trunc nuw nsw i64 %15 to i16
  store i16 %16, ptr %2, align 2, !tbaa !26
  store ptr null, ptr %0, align 8, !tbaa !27, !alias.scope !86
  br label %17

17:                                               ; preds = %_ZNSt6vectorIsSaIsEE6resizeEmRKs.exit, %14
  ret void
}